target datalayout = "e-m:e-p270:32:32-p271:32:32-p272:64:64-i64:64-i128:128-f80:128-n8:16:32:64-S128"
target triple = "x86_64-pc-linux-gnu"

; Function Attrs: nounwind uwtable
define internal ptr @PyZlib_Malloc(ptr noundef %0, i32 noundef %1, i32 noundef %2) #0 {
  %4 = alloca ptr, align 8
  %5 = alloca ptr, align 8
  %6 = alloca i32, align 4
  %7 = alloca i32, align 4
  store ptr %0, ptr %5, align 8, !tbaa !8
  store i32 %1, ptr %6, align 4, !tbaa !12
  store i32 %2, ptr %7, align 4, !tbaa !12
  %8 = load i32, ptr %7, align 4, !tbaa !12
  %9 = icmp ne i32 %8, 0
  br i1 %9, label %10, label %18

10:                                               ; preds = %3
  %11 = load i32, ptr %6, align 4, !tbaa !12
  %12 = zext i32 %11 to i64
  %13 = load i32, ptr %7, align 4, !tbaa !12
  %14 = zext i32 %13 to i64
  %15 = udiv i64 9223372036854775807, %14
  %16 = icmp ugt i64 %12, %15
  br i1 %16, label %17, label %18

17:                                               ; preds = %10
  store ptr null, ptr %4, align 8
  br label %25

18:                                               ; preds = %10, %3
  %19 = load i32, ptr %6, align 4, !tbaa !12
  %20 = zext i32 %19 to i64
  %21 = load i32, ptr %7, align 4, !tbaa !12
  %22 = zext i32 %21 to i64
  %23 = mul i64 %20, %22
  %24 = call ptr @PyMem_RawMalloc(i64 noundef %23)
  store ptr %24, ptr %4, align 8
  br label %25

25:                                               ; preds = %18, %17
  %26 = load ptr, ptr %4, align 8
  ret ptr %26
}