; Function Attrs: nounwind uwtable
define internal ptr @PyZlib_Malloc(ptr readnone captures(none) %0, i32 noundef %1, i32 noundef %2) #0 {
  %.not = icmp eq i32 %2, 0
  %.pre = zext i32 %1 to i64
  br i1 %.not, label %._crit_edge, label %4

4:                                                ; preds = %3
  %5 = zext i32 %2 to i64
  %6 = udiv i64 9223372036854775807, %5
  %7 = icmp samesign ult i64 %6, %.pre
  br i1 %7, label %10, label %._crit_edge

._crit_edge:                                      ; preds = %3, %4
  %.pre-phi7 = phi i64 [ %5, %4 ], [ 0, %3 ]
  %8 = mul nuw i64 %.pre-phi7, %.pre
  %9 = tail call ptr @PyMem_RawMalloc(i64 noundef %8) #7
  br label %10

10:                                               ; preds = %4, %._crit_edge
  %.0 = phi ptr [ %9, %._crit_edge ], [ null, %4 ]
  ret ptr %.0
}